Certificate:
    Data:
        Version: 3 (0x2)
        Serial Number:
            d6:fb:3d:9e:67:e6:dc:2d:50:c6:be:e9:f0:ff:8c:b3
        Signature Algorithm: sha256WithRSAEncryption
        Issuer: CN=ChangeMe
        Validity
            Not Before: May 14 14:33:52 2025 GMT
            Not After : Apr 28 14:33:52 2028 GMT
        Subject: CN=client_oeiras
        Subject Public Key Info:
            Public Key Algorithm: rsaEncryption
                RSA Public-Key: (2048 bit)
                Modulus:
                    00:da:cd:96:c5:f5:9b:4f:ff:64:78:9f:f8:dc:91:
                    8b:2a:f2:0a:a3:d1:0d:e5:8f:99:fb:a1:5c:79:fd:
                    d8:29:3d:ff:43:4f:c3:8c:ef:4f:7a:4e:99:6a:89:
                    fd:da:6c:69:30:a5:6c:87:94:09:92:c0:54:59:ff:
                    38:5e:a0:e8:a0:c2:d1:6f:c3:0e:88:47:54:1d:8a:
                    fe:20:c4:a8:98:d0:a7:a2:d5:4b:e9:21:9f:45:fe:
                    03:c8:85:66:5d:f5:af:ba:61:a9:b2:6c:8f:2b:9e:
                    10:de:1b:3e:5f:86:53:20:47:1f:2a:a3:31:75:3a:
                    7c:84:d6:4b:0d:77:4c:42:e3:aa:55:fb:e1:17:c8:
                    9e:11:28:fc:3a:b8:48:79:c4:69:3a:61:2f:77:0c:
                    9b:f8:5e:06:cf:b3:c8:8e:77:43:1f:3f:ae:00:ec:
                    16:04:a3:9e:46:b1:f0:a2:e9:db:1e:94:ec:f5:d4:
                    a7:d6:e6:fc:5f:d9:9b:f8:f2:67:fa:29:e3:e6:ee:
                    c1:87:0f:0b:ed:19:34:cd:df:cc:37:1b:32:77:91:
                    be:29:64:8e:7c:81:8f:21:2b:a1:c1:11:f9:cd:d4:
                    95:d3:46:76:0b:81:fe:27:e8:ca:99:cb:d6:3b:52:
                    ec:07:bf:f8:d2:84:88:3b:6b:56:a4:16:46:91:67:
                    e5:31
                Exponent: 65537 (0x10001)
        X509v3 extensions:
            X509v3 Basic Constraints: 
                CA:FALSE
            X509v3 Subject Key Identifier: 
                AF:BD:B3:CC:CC:04:06:62:5D:51:AB:18:33:4C:C0:7C:13:BC:10:BD
            X509v3 Authority Key Identifier: 
                keyid:70:AD:B1:E7:28:E4:68:33:AF:C8:47:B7:25:98:AA:F3:9F:DF:81:6F
                DirName:/CN=ChangeMe
                serial:24:9E:BD:24:66:EE:27:05:21:82:4C:43:7B:69:08:A5:F5:93:F0:15

            X509v3 Extended Key Usage: 
                TLS Web Client Authentication
            X509v3 Key Usage: 
                Digital Signature
    Signature Algorithm: sha256WithRSAEncryption
         50:33:7d:8c:ad:47:2e:cc:2d:0f:f7:f7:b5:5e:d6:3d:35:3f:
         91:56:4d:b0:51:23:88:04:2d:81:e0:5b:7b:58:28:d5:c2:32:
         5f:b0:e5:9a:93:f9:4c:cc:8e:5c:01:3c:48:6c:13:56:7b:fc:
         16:09:2f:1e:9f:4c:9c:fa:37:75:2b:db:98:2c:f6:df:81:fe:
         63:00:9c:4d:e7:a4:cc:10:25:1c:56:07:f5:a2:fe:67:da:1c:
         c0:d1:ed:0d:7b:5a:ef:c1:33:c0:cc:5b:73:a9:fc:85:65:cd:
         8b:28:ef:23:ed:7f:5b:24:f2:c0:92:a5:67:56:78:22:ce:ea:
         8f:08:3d:56:7d:f1:aa:ce:29:50:3e:a3:cc:15:67:7f:a8:96:
         0e:d4:88:b7:59:0b:94:20:3a:b5:67:ca:e9:e0:36:6d:5e:cd:
         31:9b:39:b9:60:15:67:43:16:ed:54:7e:c3:61:17:eb:49:24:
         a5:19:f5:83:18:ef:48:1c:bf:ca:08:a5:e5:f1:c6:e3:3b:33:
         44:64:8d:75:7e:3d:c4:bd:a2:88:57:a5:10:f5:8e:10:9b:30:
         9a:26:00:1b:15:1c:eb:fc:d7:84:91:2a:e6:6f:46:c2:23:ed:
         ec:6a:ef:04:bd:a7:67:05:6f:eb:4f:e2:8c:d8:e8:ea:d4:ca:
         51:db:ed:a3
-----BEGIN CERTIFICATE-----
MIIDVjCCAj6gAwIBAgIRANb7PZ5n5twtUMa+6fD/jLMwDQYJKoZIhvcNAQELBQAw
EzERMA8GA1UEAwwIQ2hhbmdlTWUwHhcNMjUwNTE0MTQzMzUyWhcNMjgwNDI4MTQz
MzUyWjAYMRYwFAYDVQQDDA1jbGllbnRfb2VpcmFzMIIBIjANBgkqhkiG9w0BAQEF
AAOCAQ8AMIIBCgKCAQEA2s2WxfWbT/9keJ/43JGLKvIKo9EN5Y+Z+6Fcef3YKT3/
Q0/DjO9Pek6Zaon92mxpMKVsh5QJksBUWf84XqDooMLRb8MOiEdUHYr+IMSomNCn
otVL6SGfRf4DyIVmXfWvumGpsmyPK54Q3hs+X4ZTIEcfKqMxdTp8hNZLDXdMQuOq
VfvhF8ieESj8OrhIecRpOmEvdwyb+F4Gz7PIjndDHz+uAOwWBKOeRrHwounbHpTs
9dSn1ub8X9mb+PJn+inj5u7Bhw8L7Rk0zd/MNxsyd5G+KWSOfIGPISuhwRH5zdSV
00Z2C4H+J+jKmcvWO1LsB7/40oSIO2tWpBZGkWflMQIDAQABo4GfMIGcMAkGA1Ud
EwQCMAAwHQYDVR0OBBYEFK+9s8zMBAZiXVGrGDNMwHwTvBC9ME4GA1UdIwRHMEWA
FHCtseco5Ggzr8hHtyWYqvOf34FvoRekFTATMREwDwYDVQQDDAhDaGFuZ2VNZYIU
JJ69JGbuJwUhgkxDe2kIpfWT8BUwEwYDVR0lBAwwCgYIKwYBBQUHAwIwCwYDVR0P
BAQDAgeAMA0GCSqGSIb3DQEBCwUAA4IBAQBQM32MrUcuzC0P9/e1XtY9NT+RVk2w
USOIBC2B4Ft7WCjVwjJfsOWak/lMzI5cATxIbBNWe/wWCS8en0yc+jd1K9uYLPbf
gf5jAJxN56TMECUcVgf1ov5n2hzA0e0Ne1rvwTPAzFtzqfyFZc2LKO8j7X9bJPLA
kqVnVngizuqPCD1WffGqzilQPqPMFWd/qJYO1Ii3WQuUIDq1Z8rp4DZtXs0xmzm5
YBVnQxbtVH7DYRfrSSSlGfWDGO9IHL/KCKXl8cbjOzNEZI11fj3EvaKIV6UQ9Y4Q
mzCaJgAbFRzr/NeEkSrmb0bCI+3sau8EvadnBW/rT+KM2Ojq1MpR2+2j
-----END CERTIFICATE-----
