Certificate:
    Data:
        Version: 3 (0x2)
        Serial Number:
            62:08:2b:ef:dc:63:d9:ca:6e:d7:b2:77:61:42:f3:7e
        Signature Algorithm: sha256WithRSAEncryption
        Issuer: CN=ChangeMe
        Validity
            Not Before: May 14 14:33:52 2025 GMT
            Not After : Apr 28 14:33:52 2028 GMT
        Subject: CN=ChangeMe
        Subject Public Key Info:
            Public Key Algorithm: rsaEncryption
                RSA Public-Key: (2048 bit)
                Modulus:
                    00:ba:d9:2d:b3:a9:c5:ef:e6:f5:3e:6b:e3:7e:91:
                    1b:4f:ac:e0:e1:8c:0d:17:9d:fc:be:7a:c0:93:08:
                    bb:9e:15:67:db:b4:ff:dd:86:bd:0d:2b:fe:89:4c:
                    4f:60:56:41:11:4a:02:88:6c:d9:71:a2:fb:77:89:
                    74:32:4d:5f:a6:b9:c7:8f:e1:e5:ba:90:d0:29:9f:
                    f7:53:ce:8f:c2:d7:45:27:18:2f:ff:9c:92:36:17:
                    4d:b4:50:8a:cc:f5:07:ce:54:ed:7f:3e:b2:72:86:
                    4f:89:da:0b:1d:25:a0:8a:dd:cd:ee:ac:6e:ad:2d:
                    3f:5a:34:d4:b1:41:9f:99:53:86:f0:74:29:2a:22:
                    cd:bd:68:5b:50:87:03:50:4e:2a:6e:c4:be:f0:18:
                    9b:81:d2:18:07:21:6e:d6:65:25:9a:fa:e7:3f:59:
                    23:4a:bc:a9:0b:07:a0:2b:b0:f9:b6:c5:77:2d:e7:
                    64:a6:a5:d3:dc:59:86:4f:01:73:03:7f:e0:16:27:
                    d4:3f:61:50:fc:89:c9:05:9c:91:39:ae:58:6e:46:
                    a8:46:e9:1a:37:83:f8:72:66:7c:8c:51:13:cb:a9:
                    92:c5:94:fd:66:90:7c:53:df:f1:9b:fb:ea:bb:3c:
                    05:07:a9:8a:0a:ef:c1:38:98:e6:4f:85:10:d2:f3:
                    67:a9
                Exponent: 65537 (0x10001)
        X509v3 extensions:
            X509v3 Basic Constraints: 
                CA:FALSE
            X509v3 Subject Key Identifier: 
                CC:60:1E:37:A1:5A:AE:24:26:3C:42:2A:51:CE:AF:2C:24:21:CF:F4
            X509v3 Authority Key Identifier: 
                keyid:70:AD:B1:E7:28:E4:68:33:AF:C8:47:B7:25:98:AA:F3:9F:DF:81:6F
                DirName:/CN=ChangeMe
                serial:24:9E:BD:24:66:EE:27:05:21:82:4C:43:7B:69:08:A5:F5:93:F0:15

            X509v3 Extended Key Usage: 
                TLS Web Server Authentication
            X509v3 Key Usage: 
                Digital Signature, Key Encipherment
            X509v3 Subject Alternative Name: 
                DNS:ChangeMe
    Signature Algorithm: sha256WithRSAEncryption
         af:35:33:35:5d:8a:f8:a3:f9:0c:c5:93:49:61:94:7e:46:9d:
         18:0f:20:c0:56:ab:77:7c:83:e8:5d:30:cd:8a:b7:6e:9e:4a:
         40:8d:fc:b4:fe:9b:35:a8:13:5c:ba:41:c7:e6:cc:42:d2:3b:
         04:82:93:d5:10:d2:4d:03:65:64:fd:cc:5d:0c:20:af:7d:13:
         bb:22:10:82:9d:9a:83:3e:5a:e0:f4:0d:eb:f0:78:a2:c8:58:
         70:1a:ee:05:5f:1d:b1:f4:e4:f3:ee:17:24:e6:28:8c:42:d3:
         66:61:e0:78:c1:04:87:41:9d:02:f3:3b:49:f4:d7:0e:aa:3c:
         a0:0f:52:28:a4:00:58:15:92:cb:5a:bb:dc:24:1a:31:fa:b1:
         6b:85:0a:6c:08:5a:12:99:22:43:6b:cd:e6:b6:bb:48:92:78:
         02:85:50:12:1f:1b:1e:01:5c:5d:19:4f:bc:bd:c4:78:aa:ad:
         a2:0d:bc:b0:e6:1f:6c:9f:54:ee:95:c0:06:a5:27:af:a1:f0:
         be:be:3f:3e:de:48:7f:49:77:5c:00:05:b3:ec:f6:a8:05:70:
         1a:3c:cf:a3:a1:68:d1:1e:76:27:0a:13:e8:9d:78:7b:fd:56:
         17:e6:37:42:b0:57:06:61:77:e2:2c:bf:6e:de:75:e0:4c:5a:
         0c:f3:a4:22
-----BEGIN CERTIFICATE-----
MIIDZTCCAk2gAwIBAgIQYggr79xj2cpu17J3YULzfjANBgkqhkiG9w0BAQsFADAT
MREwDwYDVQQDDAhDaGFuZ2VNZTAeFw0yNTA1MTQxNDMzNTJaFw0yODA0MjgxNDMz
NTJaMBMxETAPBgNVBAMMCENoYW5nZU1lMIIBIjANBgkqhkiG9w0BAQEFAAOCAQ8A
MIIBCgKCAQEAutkts6nF7+b1PmvjfpEbT6zg4YwNF538vnrAkwi7nhVn27T/3Ya9
DSv+iUxPYFZBEUoCiGzZcaL7d4l0Mk1fprnHj+HlupDQKZ/3U86PwtdFJxgv/5yS
NhdNtFCKzPUHzlTtfz6ycoZPidoLHSWgit3N7qxurS0/WjTUsUGfmVOG8HQpKiLN
vWhbUIcDUE4qbsS+8BibgdIYByFu1mUlmvrnP1kjSrypCwegK7D5tsV3LedkpqXT
3FmGTwFzA3/gFifUP2FQ/InJBZyROa5YbkaoRukaN4P4cmZ8jFETy6mSxZT9ZpB8
U9/xm/vquzwFB6mKCu/BOJjmT4UQ0vNnqQIDAQABo4G0MIGxMAkGA1UdEwQCMAAw
HQYDVR0OBBYEFMxgHjehWq4kJjxCKlHOrywkIc/0ME4GA1UdIwRHMEWAFHCtseco
5Ggzr8hHtyWYqvOf34FvoRekFTATMREwDwYDVQQDDAhDaGFuZ2VNZYIUJJ69JGbu
JwUhgkxDe2kIpfWT8BUwEwYDVR0lBAwwCgYIKwYBBQUHAwEwCwYDVR0PBAQDAgWg
MBMGA1UdEQQMMAqCCENoYW5nZU1lMA0GCSqGSIb3DQEBCwUAA4IBAQCvNTM1XYr4
o/kMxZNJYZR+Rp0YDyDAVqt3fIPoXTDNirdunkpAjfy0/ps1qBNcukHH5sxC0jsE
gpPVENJNA2Vk/cxdDCCvfRO7IhCCnZqDPlrg9A3r8HiiyFhwGu4FXx2x9OTz7hck
5iiMQtNmYeB4wQSHQZ0C8ztJ9NcOqjygD1IopABYFZLLWrvcJBox+rFrhQpsCFoS
mSJDa83mtrtIkngChVASHxseAVxdGU+8vcR4qq2iDbyw5h9sn1TulcAGpSevofC+
vj8+3kh/SXdcAAWz7PaoBXAaPM+joWjRHnYnChPonXh7/VYX5jdCsFcGYXfiLL9u
3nXgTFoM86Qi
-----END CERTIFICATE-----
